target datalayout = "e-m:e-p270:32:32-p271:32:32-p272:64:64-i64:64-i128:128-f80:128-n8:16:32:64-S128"
target triple = "x86_64-pc-linux-gnu"

; Function Attrs: nounwind uwtable
define double @Cudd_CountPath(ptr noundef %0) #0 {
  %2 = alloca double, align 8
  %3 = alloca ptr, align 8
  %4 = alloca ptr, align 8
  %5 = alloca double, align 8
  store ptr %0, ptr %3, align 8
  %6 = call ptr @st__init_table(ptr noundef @st__ptrcmp, ptr noundef @st__ptrhash)
  store ptr %6, ptr %4, align 8
  %7 = load ptr, ptr %4, align 8
  %8 = icmp eq ptr %7, null
  br i1 %8, label %9, label %10

9:                                                ; preds = %1
  store double -1.000000e+00, ptr %2, align 8
  br label %21

10:                                               ; preds = %1
  %11 = load ptr, ptr %3, align 8
  %12 = ptrtoint ptr %11 to i64
  %13 = and i64 %12, -2
  %14 = inttoptr i64 %13 to ptr
  %15 = load ptr, ptr %4, align 8
  %16 = call double @ddCountPathAux(ptr noundef %14, ptr noundef %15)
  store double %16, ptr %5, align 8
  %17 = load ptr, ptr %4, align 8
  %18 = call i32 @st__foreach(ptr noundef %17, ptr noundef @cuddStCountfree, ptr noundef null)
  %19 = load ptr, ptr %4, align 8
  call void @st__free_table(ptr noundef %19)
  %20 = load double, ptr %5, align 8
  store double %20, ptr %2, align 8
  br label %21

21:                                               ; preds = %10, %9
  %22 = load double, ptr %2, align 8
  ret double %22
}