; Function Attrs: nounwind uwtable
define double @Cudd_CountPath(ptr noundef %0) local_unnamed_addr #0 {
  %2 = tail call ptr @st__init_table(ptr noundef nonnull @st__ptrcmp, ptr noundef nonnull @st__ptrhash) #23
  %3 = icmp eq ptr %2, null
  br i1 %3, label %10, label %4

4:                                                ; preds = %1
  %5 = ptrtoint ptr %0 to i64
  %6 = and i64 %5, -2
  %7 = inttoptr i64 %6 to ptr
  %8 = tail call fastcc double @ddCountPathAux(ptr noundef %7, ptr noundef %2)
  %9 = tail call i32 @st__foreach(ptr noundef nonnull %2, ptr noundef nonnull @cuddStCountfree, ptr noundef null) #23
  tail call void @st__free_table(ptr noundef nonnull %2) #23
  br label %10

10:                                               ; preds = %1, %4
  %.0 = phi double [ %8, %4 ], [ -1.000000e+00, %1 ]
  ret double %.0
}